AARCH64 GAS  file2.s 			page 1


   1              		.arch armv8-a
   2              		.file	"file2.c"
   3              		.text
   4              		.align	2
   5              		.global	distance
   6              		.type	distance, %function
   7              	distance:
   8              	.LFB0:
   9              		.cfi_startproc
  10 0000 FD7BBCA9 		stp	x29, x30, [sp, -64]!
  11              		.cfi_def_cfa_offset 64
  12              		.cfi_offset 29, -64
  13              		.cfi_offset 30, -56
  14 0004 FD030091 		mov	x29, sp
  15 0008 E80B00FD 		str	d8, [sp, 16]
  16              		.cfi_offset 72, -48
  17 000c E01700F9 		str	x0, [sp, 40]
  18 0010 E11300F9 		str	x1, [sp, 32]
  19 0014 E01340F9 		ldr	x0, [sp, 32]
  20 0018 010040BD 		ldr	s1, [x0]
  21 001c E01740F9 		ldr	x0, [sp, 40]
  22 0020 000040BD 		ldr	s0, [x0]
  23 0024 2038201E 		fsub	s0, s1, s0
  24 0028 E03F00BD 		str	s0, [sp, 60]
  25 002c E01340F9 		ldr	x0, [sp, 32]
  26 0030 010440BD 		ldr	s1, [x0, 4]
  27 0034 E01740F9 		ldr	x0, [sp, 40]
  28 0038 000440BD 		ldr	s0, [x0, 4]
  29 003c 2038201E 		fsub	s0, s1, s0
  30 0040 E03B00BD 		str	s0, [sp, 56]
  31 0044 E03F40BD 		ldr	s0, [sp, 60]
  32 0048 00C0221E 		fcvt	d0, s0
  33 004c 0110601E 		fmov	d1, 2.0e+0
  34 0050 00000094 		bl	pow
  35 0054 0840601E 		fmov	d8, d0
  36 0058 E03B40BD 		ldr	s0, [sp, 56]
  37 005c 00C0221E 		fcvt	d0, s0
  38 0060 0110601E 		fmov	d1, 2.0e+0
  39 0064 00000094 		bl	pow
  40 0068 0029601E 		fadd	d0, d8, d0
  41 006c 00000094 		bl	sqrt
  42 0070 0040621E 		fcvt	s0, d0
  43 0074 E03700BD 		str	s0, [sp, 52]
  44 0078 E03740B9 		ldr	w0, [sp, 52]
  45 007c 0000271E 		fmov	s0, w0
  46 0080 E80B40FD 		ldr	d8, [sp, 16]
  47 0084 FD7BC4A8 		ldp	x29, x30, [sp], 64
  48              		.cfi_restore 30
  49              		.cfi_restore 29
  50              		.cfi_restore 72
  51              		.cfi_def_cfa_offset 0
  52 0088 C0035FD6 		ret
  53              		.cfi_endproc
  54              	.LFE0:
  55              		.size	distance, .-distance
  56              		.align	2
  57              		.global	area
AARCH64 GAS  file2.s 			page 2


  58              		.type	area, %function
  59              	area:
  60              	.LFB1:
  61              		.cfi_startproc
  62 008c FD7BBCA9 		stp	x29, x30, [sp, -64]!
  63              		.cfi_def_cfa_offset 64
  64              		.cfi_offset 29, -64
  65              		.cfi_offset 30, -56
  66 0090 FD030091 		mov	x29, sp
  67 0094 E00F00F9 		str	x0, [sp, 24]
  68 0098 E20F40F9 		ldr	x2, [sp, 24]
  69 009c E00F40F9 		ldr	x0, [sp, 24]
  70 00a0 00200091 		add	x0, x0, 8
  71 00a4 E10300AA 		mov	x1, x0
  72 00a8 E00302AA 		mov	x0, x2
  73 00ac 00000094 		bl	distance
  74 00b0 E03F00BD 		str	s0, [sp, 60]
  75 00b4 E00F40F9 		ldr	x0, [sp, 24]
  76 00b8 02200091 		add	x2, x0, 8
  77 00bc E00F40F9 		ldr	x0, [sp, 24]
  78 00c0 00400091 		add	x0, x0, 16
  79 00c4 E10300AA 		mov	x1, x0
  80 00c8 E00302AA 		mov	x0, x2
  81 00cc 00000094 		bl	distance
  82 00d0 E03B00BD 		str	s0, [sp, 56]
  83 00d4 E00F40F9 		ldr	x0, [sp, 24]
  84 00d8 00400091 		add	x0, x0, 16
  85 00dc E10F40F9 		ldr	x1, [sp, 24]
  86 00e0 00000094 		bl	distance
  87 00e4 E03700BD 		str	s0, [sp, 52]
  88 00e8 E13F40BD 		ldr	s1, [sp, 60]
  89 00ec E03B40BD 		ldr	s0, [sp, 56]
  90 00f0 2128201E 		fadd	s1, s1, s0
  91 00f4 E03740BD 		ldr	s0, [sp, 52]
  92 00f8 2128201E 		fadd	s1, s1, s0
  93 00fc 0010201E 		fmov	s0, 2.0e+0
  94 0100 2018201E 		fdiv	s0, s1, s0
  95 0104 E03300BD 		str	s0, [sp, 48]
  96 0108 E13340BD 		ldr	s1, [sp, 48]
  97 010c E03F40BD 		ldr	s0, [sp, 60]
  98 0110 2138201E 		fsub	s1, s1, s0
  99 0114 E03340BD 		ldr	s0, [sp, 48]
 100 0118 2108201E 		fmul	s1, s1, s0
 101 011c E23340BD 		ldr	s2, [sp, 48]
 102 0120 E03B40BD 		ldr	s0, [sp, 56]
 103 0124 4038201E 		fsub	s0, s2, s0
 104 0128 2108201E 		fmul	s1, s1, s0
 105 012c E23340BD 		ldr	s2, [sp, 48]
 106 0130 E03740BD 		ldr	s0, [sp, 52]
 107 0134 4038201E 		fsub	s0, s2, s0
 108 0138 2008201E 		fmul	s0, s1, s0
 109 013c 00C0221E 		fcvt	d0, s0
 110 0140 00000094 		bl	sqrt
 111 0144 0040621E 		fcvt	s0, d0
 112 0148 E02F00BD 		str	s0, [sp, 44]
 113 014c E02F40B9 		ldr	w0, [sp, 44]
 114 0150 0000271E 		fmov	s0, w0
AARCH64 GAS  file2.s 			page 3


 115 0154 FD7BC4A8 		ldp	x29, x30, [sp], 64
 116              		.cfi_restore 30
 117              		.cfi_restore 29
 118              		.cfi_def_cfa_offset 0
 119 0158 C0035FD6 		ret
 120              		.cfi_endproc
 121              	.LFE1:
 122              		.size	area, .-area
 123              		.section	.rodata
 124              		.align	3
 125              	.LC0:
 126 0000 54686520 		.string	"The distance between point1 and point2 is %f\n"
 126      64697374 
 126      616E6365 
 126      20626574 
 126      7765656E 
 127 002e 0000     		.align	3
 128              	.LC1:
 129 0030 54686520 		.string	"The area between point1, point2, and point3 is %f\n"
 129      61726561 
 129      20626574 
 129      7765656E 
 129      20706F69 
 130              		.text
 131              		.align	2
 132              		.global	main
 133              		.type	main, %function
 134              	main:
 135              	.LFB2:
 136              		.cfi_startproc
 137 015c FD7BBBA9 		stp	x29, x30, [sp, -80]!
 138              		.cfi_def_cfa_offset 80
 139              		.cfi_offset 29, -80
 140              		.cfi_offset 30, -72
 141 0160 FD030091 		mov	x29, sp
 142 0164 0010251E 		fmov	s0, 1.2e+1
 143 0168 E04300BD 		str	s0, [sp, 64]
 144 016c 0090241E 		fmov	s0, 1.0e+1
 145 0170 E04700BD 		str	s0, [sp, 68]
 146 0174 0010261E 		fmov	s0, 1.6e+1
 147 0178 E03B00BD 		str	s0, [sp, 56]
 148 017c 0010271E 		fmov	s0, 2.4e+1
 149 0180 E03F00BD 		str	s0, [sp, 60]
 150 0184 0010241E 		fmov	s0, 8.0e+0
 151 0188 E03300BD 		str	s0, [sp, 48]
 152 018c 0010211E 		fmov	s0, 3.0e+0
 153 0190 E03700BD 		str	s0, [sp, 52]
 154 0194 E02340F9 		ldr	x0, [sp, 64]
 155 0198 E00F00F9 		str	x0, [sp, 24]
 156 019c E01F40F9 		ldr	x0, [sp, 56]
 157 01a0 E01300F9 		str	x0, [sp, 32]
 158 01a4 E01B40F9 		ldr	x0, [sp, 48]
 159 01a8 E01700F9 		str	x0, [sp, 40]
 160 01ac E1E30091 		add	x1, sp, 56
 161 01b0 E0030191 		add	x0, sp, 64
 162 01b4 00000094 		bl	distance
 163 01b8 E04F00BD 		str	s0, [sp, 76]
AARCH64 GAS  file2.s 			page 4


 164 01bc E0630091 		add	x0, sp, 24
 165 01c0 00000094 		bl	area
 166 01c4 E04B00BD 		str	s0, [sp, 72]
 167 01c8 E04F40BD 		ldr	s0, [sp, 76]
 168 01cc 00C0221E 		fcvt	d0, s0
 169 01d0 00000090 		adrp	x0, .LC0
 170 01d4 00000091 		add	x0, x0, :lo12:.LC0
 171 01d8 00000094 		bl	printf
 172 01dc E04B40BD 		ldr	s0, [sp, 72]
 173 01e0 00C0221E 		fcvt	d0, s0
 174 01e4 00000090 		adrp	x0, .LC1
 175 01e8 00000091 		add	x0, x0, :lo12:.LC1
 176 01ec 00000094 		bl	printf
 177 01f0 00008052 		mov	w0, 0
 178 01f4 FD7BC5A8 		ldp	x29, x30, [sp], 80
 179              		.cfi_restore 30
 180              		.cfi_restore 29
 181              		.cfi_def_cfa_offset 0
 182 01f8 C0035FD6 		ret
 183              		.cfi_endproc
 184              	.LFE2:
 185              		.size	main, .-main
 186              		.ident	"GCC: (Debian 8.3.0-6) 8.3.0"
 187              		.section	.note.GNU-stack,"",@progbits
AARCH64 GAS  file2.s 			page 5

